target datalayout = "e-m:e-p270:32:32-p271:32:32-p272:64:64-i64:64-i128:128-f80:128-n8:16:32:64-S128"
target triple = "x86_64-pc-linux-gnu"

@.str.63 = private unnamed_addr constant [20 x i8] c"Unknown format `%s'\00", align 1
@.str.64 = private unnamed_addr constant [2 x i8] c",\00", align 1
@.str.65 = private unnamed_addr constant [15 x i8] c"Missing number\00", align 1
@.str.66 = private unnamed_addr constant [19 x i8] c"Too many arguments\00", align 1
@.str.67 = private unnamed_addr constant [21 x i8] c"Not enough arguments\00", align 1
@.str.68 = private unnamed_addr constant [3 x i8] c"%s\00", align 1

; Function Attrs: nounwind uwtable
define internal ptr @la_strsep(ptr noundef %0, ptr noundef %1) #0 {
  %3 = alloca ptr, align 8
  %4 = alloca ptr, align 8
  %5 = alloca ptr, align 8
  %6 = alloca ptr, align 8
  %7 = alloca ptr, align 8
  store ptr %0, ptr %4, align 8
  store ptr %1, ptr %5, align 8
  %8 = load ptr, ptr %4, align 8
  %9 = icmp eq ptr %8, null
  br i1 %9, label %20, label %10

10:                                               ; preds = %2
  %11 = load ptr, ptr %4, align 8
  %12 = load ptr, ptr %11, align 8
  %13 = icmp eq ptr %12, null
  br i1 %13, label %20, label %14

14:                                               ; preds = %10
  %15 = load ptr, ptr %4, align 8
  %16 = load ptr, ptr %15, align 8
  %17 = load i8, ptr %16, align 1
  %18 = sext i8 %17 to i32
  %19 = icmp eq i32 %18, 0
  br i1 %19, label %20, label %21

20:                                               ; preds = %14, %10, %2
  store ptr null, ptr %3, align 8
  br label %40

21:                                               ; preds = %14
  %22 = load ptr, ptr %4, align 8
  %23 = load ptr, ptr %22, align 8
  store ptr %23, ptr %7, align 8
  %24 = load ptr, ptr %7, align 8
  %25 = load ptr, ptr %7, align 8
  %26 = load ptr, ptr %5, align 8
  %27 = call i64 @strcspn(ptr noundef %25, ptr noundef %26) #11
  %28 = getelementptr inbounds i8, ptr %24, i64 %27
  store ptr %28, ptr %6, align 8
  %29 = load ptr, ptr %6, align 8
  %30 = load i8, ptr %29, align 1
  %31 = sext i8 %30 to i32
  %32 = icmp ne i32 %31, 0
  br i1 %32, label %33, label %36

33:                                               ; preds = %21
  %34 = load ptr, ptr %6, align 8
  %35 = getelementptr inbounds i8, ptr %34, i32 1
  store ptr %35, ptr %6, align 8
  store i8 0, ptr %34, align 1
  br label %36

36:                                               ; preds = %33, %21
  %37 = load ptr, ptr %6, align 8
  %38 = load ptr, ptr %4, align 8
  store ptr %37, ptr %38, align 8
  %39 = load ptr, ptr %7, align 8
  store ptr %39, ptr %3, align 8
  br label %40

40:                                               ; preds = %36, %20
  %41 = load ptr, ptr %3, align 8
  ret ptr %41
}

; Function Attrs: nounwind uwtable
define internal i32 @parse_device(ptr noundef %0, ptr noundef %1, ptr noundef %2) #0 {
  %4 = alloca i32, align 4
  %5 = alloca ptr, align 8
  %6 = alloca ptr, align 8
  %7 = alloca ptr, align 8
  %8 = alloca [3 x i64], align 16
  %9 = alloca ptr, align 8
  %10 = alloca ptr, align 8
  %11 = alloca i32, align 4
  %12 = alloca ptr, align 8
  %13 = alloca i64, align 8
  %14 = alloca ptr, align 8
  store ptr %0, ptr %5, align 8
  store ptr %1, ptr %6, align 8
  store ptr %2, ptr %7, align 8
  store ptr null, ptr %14, align 8
  %15 = load ptr, ptr %5, align 8
  call void @llvm.memset.p0.i64(ptr align 8 %15, i8 0, i64 8, i1 false)
  %16 = load ptr, ptr %7, align 8
  %17 = call ptr @strchr(ptr noundef %16, i32 noundef 44) #11
  store ptr %17, ptr %10, align 8
  %18 = icmp ne ptr %17, null
  br i1 %18, label %19, label %66

19:                                               ; preds = %3
  %20 = load ptr, ptr %10, align 8
  %21 = getelementptr inbounds i8, ptr %20, i32 1
  store ptr %21, ptr %10, align 8
  store i8 0, ptr %20, align 1
  %22 = load ptr, ptr %7, align 8
  %23 = call ptr @pack_find(ptr noundef %22)
  store ptr %23, ptr %12, align 8
  %24 = icmp eq ptr %23, null
  br i1 %24, label %25, label %28

25:                                               ; preds = %19
  %26 = load ptr, ptr %6, align 8
  %27 = load ptr, ptr %7, align 8
  call void (ptr, i32, ptr, ...) @archive_set_error(ptr noundef %26, i32 noundef 84, ptr noundef @.str.63, ptr noundef %27)
  store i32 -20, ptr %4, align 4
  br label %71

28:                                               ; preds = %19
  store i32 0, ptr %11, align 4
  br label %29

29:                                               ; preds = %44, %28
  %30 = call ptr @la_strsep(ptr noundef %10, ptr noundef @.str.64)
  store ptr %30, ptr %9, align 8
  %31 = icmp ne ptr %30, null
  br i1 %31, label %32, label %50

32:                                               ; preds = %29
  %33 = load ptr, ptr %9, align 8
  %34 = load i8, ptr %33, align 1
  %35 = sext i8 %34 to i32
  %36 = icmp eq i32 %35, 0
  br i1 %36, label %37, label %39

37:                                               ; preds = %32
  %38 = load ptr, ptr %6, align 8
  call void (ptr, i32, ptr, ...) @archive_set_error(ptr noundef %38, i32 noundef 84, ptr noundef @.str.65)
  store i32 -20, ptr %4, align 4
  br label %71

39:                                               ; preds = %32
  %40 = load i32, ptr %11, align 4
  %41 = icmp sge i32 %40, 3
  br i1 %41, label %42, label %44

42:                                               ; preds = %39
  %43 = load ptr, ptr %6, align 8
  call void (ptr, i32, ptr, ...) @archive_set_error(ptr noundef %43, i32 noundef 84, ptr noundef @.str.66)
  store i32 -20, ptr %4, align 4
  br label %71

44:                                               ; preds = %39
  %45 = call i64 @mtree_atol(ptr noundef %9, i32 noundef 0)
  %46 = load i32, ptr %11, align 4
  %47 = add nsw i32 %46, 1
  store i32 %47, ptr %11, align 4
  %48 = sext i32 %46 to i64
  %49 = getelementptr inbounds [3 x i64], ptr %8, i64 0, i64 %48
  store i64 %45, ptr %49, align 8
  br label %29, !llvm.loop !30

50:                                               ; preds = %29
  %51 = load i32, ptr %11, align 4
  %52 = icmp slt i32 %51, 2
  br i1 %52, label %53, label %55

53:                                               ; preds = %50
  %54 = load ptr, ptr %6, align 8
  call void (ptr, i32, ptr, ...) @archive_set_error(ptr noundef %54, i32 noundef 84, ptr noundef @.str.67)
  store i32 -20, ptr %4, align 4
  br label %71

55:                                               ; preds = %50
  %56 = load ptr, ptr %12, align 8
  %57 = load i32, ptr %11, align 4
  %58 = getelementptr inbounds [3 x i64], ptr %8, i64 0, i64 0
  %59 = call i64 %56(i32 noundef %57, ptr noundef %58, ptr noundef %14)
  store i64 %59, ptr %13, align 8
  %60 = load ptr, ptr %14, align 8
  %61 = icmp ne ptr %60, null
  br i1 %61, label %62, label %65

62:                                               ; preds = %55
  %63 = load ptr, ptr %6, align 8
  %64 = load ptr, ptr %14, align 8
  call void (ptr, i32, ptr, ...) @archive_set_error(ptr noundef %63, i32 noundef 84, ptr noundef @.str.68, ptr noundef %64)
  store i32 -20, ptr %4, align 4
  br label %71

65:                                               ; preds = %55
  br label %68

66:                                               ; preds = %3
  %67 = call i64 @mtree_atol(ptr noundef %7, i32 noundef 0)
  store i64 %67, ptr %13, align 8
  br label %68

68:                                               ; preds = %66, %65
  %69 = load i64, ptr %13, align 8
  %70 = load ptr, ptr %5, align 8
  store i64 %69, ptr %70, align 8
  store i32 0, ptr %4, align 4
  br label %71

71:                                               ; preds = %68, %62, %53, %42, %37, %25
  %72 = load i32, ptr %4, align 4
  ret i32 %72
}