; Function Attrs: nounwind uwtable
define internal fastcc range(i32 -20, 1) i32 @parse_device(ptr noundef nonnull writeonly captures(none) initializes((0, 8)) %0, ptr noundef %1, ptr noundef %2) unnamed_addr #0 {
  %4 = alloca ptr, align 8
  %5 = alloca [3 x i64], align 16
  %6 = alloca ptr, align 8
  %7 = alloca ptr, align 8
  store ptr %2, ptr %4, align 8
  store ptr null, ptr %7, align 8
  store i64 0, ptr %0, align 8
  %8 = tail call ptr @strchr(ptr noundef nonnull dereferenceable(1) %2, i32 noundef 44) #21
  %.not = icmp eq ptr %8, null
  br i1 %.not, label %38, label %9

9:                                                ; preds = %3
  store i8 0, ptr %8, align 1
  %10 = tail call ptr @pack_find(ptr noundef nonnull %2) #19
  %11 = icmp eq ptr %10, null
  br i1 %11, label %15, label %.preheader

.preheader:                                       ; preds = %9
  %12 = getelementptr inbounds nuw i8, ptr %8, i64 1
  %13 = load i8, ptr %12, align 1
  %14 = icmp eq i8 %13, 0
  br i1 %14, label %._crit_edge.thread, label %.lr.ph

15:                                               ; preds = %9
  tail call void (ptr, i32, ptr, ...) @archive_set_error(ptr noundef %1, i32 noundef 84, ptr noundef nonnull @.str.63, ptr noundef nonnull %2) #19
  br label %41

.lr.ph:                                           ; preds = %.preheader, %27
  %indvars.iv = phi i64 [ %indvars.iv.next, %27 ], [ 0, %.preheader ]
  %.02127 = phi ptr [ %.1, %27 ], [ %12, %.preheader ]
  %16 = tail call i64 @strcspn(ptr noundef nonnull %.02127, ptr noundef nonnull @.str.64) #21
  %17 = getelementptr inbounds i8, ptr %.02127, i64 %16
  %18 = load i8, ptr %17, align 1
  %.not.i = icmp eq i8 %18, 0
  br i1 %.not.i, label %21, label %19

19:                                               ; preds = %.lr.ph
  %20 = getelementptr inbounds nuw i8, ptr %17, i64 1
  store i8 0, ptr %17, align 1
  br label %21

21:                                               ; preds = %19, %.lr.ph
  %.1 = phi ptr [ %20, %19 ], [ %17, %.lr.ph ]
  store ptr %.02127, ptr %6, align 8
  %22 = load i8, ptr %.02127, align 1
  %23 = icmp eq i8 %22, 0
  br i1 %23, label %24, label %25

24:                                               ; preds = %21
  tail call void (ptr, i32, ptr, ...) @archive_set_error(ptr noundef %1, i32 noundef 84, ptr noundef nonnull @.str.65) #19
  br label %41

25:                                               ; preds = %21
  %exitcond = icmp eq i64 %indvars.iv, 3
  br i1 %exitcond, label %26, label %27

26:                                               ; preds = %25
  tail call void (ptr, i32, ptr, ...) @archive_set_error(ptr noundef %1, i32 noundef 84, ptr noundef nonnull @.str.66) #19
  br label %41

27:                                               ; preds = %25
  %28 = call fastcc i64 @mtree_atol(ptr noundef %6, i32 noundef 0)
  %indvars.iv.next = add nuw nsw i64 %indvars.iv, 1
  %29 = getelementptr inbounds nuw [3 x i64], ptr %5, i64 0, i64 %indvars.iv
  store i64 %28, ptr %29, align 8
  %30 = load i8, ptr %.1, align 1
  %31 = icmp eq i8 %30, 0
  br i1 %31, label %._crit_edge, label %.lr.ph, !llvm.loop !30

._crit_edge:                                      ; preds = %27
  %32 = icmp eq i64 %indvars.iv, 0
  br i1 %32, label %._crit_edge.thread, label %33

._crit_edge.thread:                               ; preds = %.preheader, %._crit_edge
  tail call void (ptr, i32, ptr, ...) @archive_set_error(ptr noundef %1, i32 noundef 84, ptr noundef nonnull @.str.67) #19
  br label %41

33:                                               ; preds = %._crit_edge
  %34 = trunc nuw nsw i64 %indvars.iv.next to i32
  %35 = call i64 %10(i32 noundef %34, ptr noundef nonnull %5, ptr noundef nonnull %7) #19
  %36 = load ptr, ptr %7, align 8
  %.not20 = icmp eq ptr %36, null
  br i1 %.not20, label %40, label %37

37:                                               ; preds = %33
  call void (ptr, i32, ptr, ...) @archive_set_error(ptr noundef %1, i32 noundef 84, ptr noundef nonnull @.str.68, ptr noundef nonnull %36) #19
  br label %41

38:                                               ; preds = %3
  %39 = call fastcc i64 @mtree_atol(ptr noundef %4, i32 noundef 0)
  br label %40

40:                                               ; preds = %33, %38
  %.0 = phi i64 [ %35, %33 ], [ %39, %38 ]
  store i64 %.0, ptr %0, align 8
  br label %41

41:                                               ; preds = %40, %37, %._crit_edge.thread, %26, %24, %15
  %.013 = phi i32 [ -20, %15 ], [ -20, %24 ], [ -20, %26 ], [ -20, %._crit_edge.thread ], [ -20, %37 ], [ 0, %40 ]
  ret i32 %.013
}